; Function Attrs: mustprogress uwtable
define void @_ZNK3nix22InstallableDerivedPath4whatB5cxx11Ev(ptr dead_on_unwind noalias writable sret(%"class.std::__cxx11::basic_string") align 8 %0, ptr noundef nonnull align 8 dereferenceable(104) %1) unnamed_addr #4 align 2 {
  %3 = getelementptr inbounds i8, ptr %1, i64 24
  %4 = getelementptr inbounds i8, ptr %1, i64 8
  %5 = load ptr, ptr %4, align 8
  %6 = load ptr, ptr %5, align 8
  %7 = getelementptr i8, ptr %6, i64 -24
  %8 = load i64, ptr %7, align 8
  %9 = getelementptr inbounds i8, ptr %5, i64 %8
  tail call void @_ZNK3nix11DerivedPath9to_stringB5cxx11ERKNS_14StoreDirConfigE(ptr dead_on_unwind writable sret(%"class.std::__cxx11::basic_string") align 8 %0, ptr noundef nonnull align 8 dereferenceable(73) %3, ptr noundef nonnull align 8 dereferenceable(344) %9)
  ret void
}